target datalayout = "e-m:e-p270:32:32-p271:32:32-p272:64:64-i64:64-i128:128-f80:128-n8:16:32:64-S128"
target triple = "x86_64-pc-linux-gnu"

%struct.wtapng_block_s = type { i32, i32, ptr, ptr, ptr }
%struct.section_info_t = type { i32, i16, i16, ptr, i64, i32, i64, i64 }
%struct.pcapng_block_header_s = type { i32, i32 }
%struct.wtapng_if_stats_mandatory_s = type { i32, i32, i32 }
%struct.pcapng_interface_statistics_block_s = type { i32, i32, i32 }

@.str.42 = private unnamed_addr constant [60 x i8] c"pcapng: total block length %u of an ISB is too small (< %u)\00", align 1

; Function Attrs: nounwind uwtable
define internal i32 @pcapng_read_interface_statistics_block(ptr noundef %0, ptr noundef %1, ptr noundef %2, ptr noundef %3, ptr noundef %4, ptr noundef %5) #0 {
  %7 = alloca i32, align 4
  %8 = alloca ptr, align 8
  %9 = alloca ptr, align 8
  %10 = alloca ptr, align 8
  %11 = alloca ptr, align 8
  %12 = alloca ptr, align 8
  %13 = alloca ptr, align 8
  %14 = alloca i32, align 4
  %15 = alloca %struct.pcapng_interface_statistics_block_s, align 4
  %16 = alloca ptr, align 8
  store ptr %0, ptr %8, align 8
  store ptr %1, ptr %9, align 8
  store ptr %2, ptr %10, align 8
  store ptr %3, ptr %11, align 8
  store ptr %4, ptr %12, align 8
  store ptr %5, ptr %13, align 8
  %17 = load ptr, ptr %9, align 8
  %18 = getelementptr inbounds %struct.pcapng_block_header_s, ptr %17, i32 0, i32 1
  %19 = load i32, ptr %18, align 4
  %20 = icmp ult i32 %19, 24
  br i1 %20, label %21, label %28

21:                                               ; preds = %6
  %22 = load ptr, ptr %12, align 8
  store i32 -13, ptr %22, align 4
  %23 = load ptr, ptr %9, align 8
  %24 = getelementptr inbounds %struct.pcapng_block_header_s, ptr %23, i32 0, i32 1
  %25 = load i32, ptr %24, align 4
  %26 = call noalias ptr (ptr, ptr, ...) @wmem_strdup_printf(ptr noundef null, ptr noundef @.str.42, i32 noundef %25, i32 noundef 24)
  %27 = load ptr, ptr %13, align 8
  store ptr %26, ptr %27, align 8
  store i32 0, ptr %7, align 4
  br label %145

28:                                               ; preds = %6
  %29 = load ptr, ptr %8, align 8
  %30 = load ptr, ptr %12, align 8
  %31 = load ptr, ptr %13, align 8
  %32 = call i32 @wtap_read_bytes(ptr noundef %29, ptr noundef %15, i32 noundef 12, ptr noundef %30, ptr noundef %31)
  %33 = icmp ne i32 %32, 0
  br i1 %33, label %37, label %34

34:                                               ; preds = %28
  br label %35

35:                                               ; preds = %34
  br label %36

36:                                               ; preds = %35
  store i32 0, ptr %7, align 4
  br label %145

37:                                               ; preds = %28
  %38 = call ptr @wtap_block_create(i32 noundef 3)
  %39 = load ptr, ptr %11, align 8
  %40 = getelementptr inbounds %struct.wtapng_block_s, ptr %39, i32 0, i32 2
  store ptr %38, ptr %40, align 8
  %41 = load ptr, ptr %11, align 8
  %42 = getelementptr inbounds %struct.wtapng_block_s, ptr %41, i32 0, i32 2
  %43 = load ptr, ptr %42, align 8
  %44 = call ptr @wtap_block_get_mandatory_data(ptr noundef %43)
  store ptr %44, ptr %16, align 8
  %45 = load ptr, ptr %10, align 8
  %46 = getelementptr inbounds %struct.section_info_t, ptr %45, i32 0, i32 0
  %47 = load i32, ptr %46, align 8
  %48 = icmp ne i32 %47, 0
  br i1 %48, label %49, label %113

49:                                               ; preds = %37
  %50 = getelementptr inbounds %struct.pcapng_interface_statistics_block_s, ptr %15, i32 0, i32 0
  %51 = load i32, ptr %50, align 4
  %52 = and i32 %51, 255
  %53 = shl i32 %52, 24
  %54 = getelementptr inbounds %struct.pcapng_interface_statistics_block_s, ptr %15, i32 0, i32 0
  %55 = load i32, ptr %54, align 4
  %56 = and i32 %55, 65280
  %57 = shl i32 %56, 8
  %58 = or i32 %53, %57
  %59 = getelementptr inbounds %struct.pcapng_interface_statistics_block_s, ptr %15, i32 0, i32 0
  %60 = load i32, ptr %59, align 4
  %61 = and i32 %60, 16711680
  %62 = lshr i32 %61, 8
  %63 = or i32 %58, %62
  %64 = getelementptr inbounds %struct.pcapng_interface_statistics_block_s, ptr %15, i32 0, i32 0
  %65 = load i32, ptr %64, align 4
  %66 = and i32 %65, -16777216
  %67 = lshr i32 %66, 24
  %68 = or i32 %63, %67
  %69 = load ptr, ptr %16, align 8
  %70 = getelementptr inbounds %struct.wtapng_if_stats_mandatory_s, ptr %69, i32 0, i32 0
  store i32 %68, ptr %70, align 4
  %71 = getelementptr inbounds %struct.pcapng_interface_statistics_block_s, ptr %15, i32 0, i32 1
  %72 = load i32, ptr %71, align 4
  %73 = and i32 %72, 255
  %74 = shl i32 %73, 24
  %75 = getelementptr inbounds %struct.pcapng_interface_statistics_block_s, ptr %15, i32 0, i32 1
  %76 = load i32, ptr %75, align 4
  %77 = and i32 %76, 65280
  %78 = shl i32 %77, 8
  %79 = or i32 %74, %78
  %80 = getelementptr inbounds %struct.pcapng_interface_statistics_block_s, ptr %15, i32 0, i32 1
  %81 = load i32, ptr %80, align 4
  %82 = and i32 %81, 16711680
  %83 = lshr i32 %82, 8
  %84 = or i32 %79, %83
  %85 = getelementptr inbounds %struct.pcapng_interface_statistics_block_s, ptr %15, i32 0, i32 1
  %86 = load i32, ptr %85, align 4
  %87 = and i32 %86, -16777216
  %88 = lshr i32 %87, 24
  %89 = or i32 %84, %88
  %90 = load ptr, ptr %16, align 8
  %91 = getelementptr inbounds %struct.wtapng_if_stats_mandatory_s, ptr %90, i32 0, i32 1
  store i32 %89, ptr %91, align 4
  %92 = getelementptr inbounds %struct.pcapng_interface_statistics_block_s, ptr %15, i32 0, i32 2
  %93 = load i32, ptr %92, align 4
  %94 = and i32 %93, 255
  %95 = shl i32 %94, 24
  %96 = getelementptr inbounds %struct.pcapng_interface_statistics_block_s, ptr %15, i32 0, i32 2
  %97 = load i32, ptr %96, align 4
  %98 = and i32 %97, 65280
  %99 = shl i32 %98, 8
  %100 = or i32 %95, %99
  %101 = getelementptr inbounds %struct.pcapng_interface_statistics_block_s, ptr %15, i32 0, i32 2
  %102 = load i32, ptr %101, align 4
  %103 = and i32 %102, 16711680
  %104 = lshr i32 %103, 8
  %105 = or i32 %100, %104
  %106 = getelementptr inbounds %struct.pcapng_interface_statistics_block_s, ptr %15, i32 0, i32 2
  %107 = load i32, ptr %106, align 4
  %108 = and i32 %107, -16777216
  %109 = lshr i32 %108, 24
  %110 = or i32 %105, %109
  %111 = load ptr, ptr %16, align 8
  %112 = getelementptr inbounds %struct.wtapng_if_stats_mandatory_s, ptr %111, i32 0, i32 2
  store i32 %110, ptr %112, align 4
  br label %126

113:                                              ; preds = %37
  %114 = getelementptr inbounds %struct.pcapng_interface_statistics_block_s, ptr %15, i32 0, i32 0
  %115 = load i32, ptr %114, align 4
  %116 = load ptr, ptr %16, align 8
  %117 = getelementptr inbounds %struct.wtapng_if_stats_mandatory_s, ptr %116, i32 0, i32 0
  store i32 %115, ptr %117, align 4
  %118 = getelementptr inbounds %struct.pcapng_interface_statistics_block_s, ptr %15, i32 0, i32 1
  %119 = load i32, ptr %118, align 4
  %120 = load ptr, ptr %16, align 8
  %121 = getelementptr inbounds %struct.wtapng_if_stats_mandatory_s, ptr %120, i32 0, i32 1
  store i32 %119, ptr %121, align 4
  %122 = getelementptr inbounds %struct.pcapng_interface_statistics_block_s, ptr %15, i32 0, i32 2
  %123 = load i32, ptr %122, align 4
  %124 = load ptr, ptr %16, align 8
  %125 = getelementptr inbounds %struct.wtapng_if_stats_mandatory_s, ptr %124, i32 0, i32 2
  store i32 %123, ptr %125, align 4
  br label %126

126:                                              ; preds = %113, %49
  br label %127

127:                                              ; preds = %126
  br label %128

128:                                              ; preds = %127
  %129 = load ptr, ptr %9, align 8
  %130 = getelementptr inbounds %struct.pcapng_block_header_s, ptr %129, i32 0, i32 1
  %131 = load i32, ptr %130, align 4
  %132 = sub i32 %131, 24
  store i32 %132, ptr %14, align 4
  %133 = load ptr, ptr %8, align 8
  %134 = load ptr, ptr %11, align 8
  %135 = load ptr, ptr %10, align 8
  %136 = load i32, ptr %14, align 4
  %137 = load ptr, ptr %12, align 8
  %138 = load ptr, ptr %13, align 8
  %139 = call i32 @pcapng_process_options(ptr noundef %133, ptr noundef %134, ptr noundef %135, i32 noundef %136, ptr noundef @pcapng_process_interface_statistics_block_option, i32 noundef 0, ptr noundef %137, ptr noundef %138)
  %140 = icmp ne i32 %139, 0
  br i1 %140, label %142, label %141

141:                                              ; preds = %128
  store i32 0, ptr %7, align 4
  br label %145

142:                                              ; preds = %128
  %143 = load ptr, ptr %11, align 8
  %144 = getelementptr inbounds %struct.wtapng_block_s, ptr %143, i32 0, i32 1
  store i32 1, ptr %144, align 4
  store i32 1, ptr %7, align 4
  br label %145

145:                                              ; preds = %142, %141, %36, %21
  %146 = load i32, ptr %7, align 4
  ret i32 %146
}