; Function Attrs: nounwind uwtable
define internal fastcc range(i32 0, 2) i32 @pcapng_read_interface_statistics_block(ptr noundef %0, ptr noundef nonnull readonly captures(none) %1, ptr noundef %2, ptr noundef nonnull %3, ptr noundef %4, ptr noundef %5) unnamed_addr #0 {
  %7 = alloca %struct.pcapng_interface_statistics_block_s, align 4
  %8 = getelementptr inbounds nuw i8, ptr %1, i64 4
  %9 = load i32, ptr %8, align 4
  %10 = icmp ult i32 %9, 24
  br i1 %10, label %11, label %14

11:                                               ; preds = %6
  store i32 -13, ptr %4, align 4
  %12 = load i32, ptr %8, align 4
  %13 = tail call noalias ptr (ptr, ptr, ...) @wmem_strdup_printf(ptr noundef null, ptr noundef nonnull @.str.42, i32 noundef %12, i32 noundef 24) #16
  store ptr %13, ptr %5, align 8
  br label %44

14:                                               ; preds = %6
  %15 = call i32 @wtap_read_bytes(ptr noundef %0, ptr noundef nonnull %7, i32 noundef 12, ptr noundef %4, ptr noundef %5) #16
  %.not = icmp eq i32 %15, 0
  br i1 %.not, label %44, label %16

16:                                               ; preds = %14
  %17 = call ptr @wtap_block_create(i32 noundef 3) #16
  %18 = getelementptr inbounds nuw i8, ptr %3, i64 8
  store ptr %17, ptr %18, align 8
  %19 = call ptr @wtap_block_get_mandatory_data(ptr noundef %17) #16
  %20 = load i32, ptr %2, align 8
  %.not24 = icmp eq i32 %20, 0
  %21 = load i32, ptr %7, align 4
  br i1 %.not24, label %31, label %22

22:                                               ; preds = %16
  %23 = call i32 @llvm.bswap.i32(i32 %21)
  store i32 %23, ptr %19, align 4
  %24 = getelementptr inbounds nuw i8, ptr %7, i64 4
  %25 = load i32, ptr %24, align 4
  %26 = call i32 @llvm.bswap.i32(i32 %25)
  %27 = getelementptr inbounds nuw i8, ptr %19, i64 4
  store i32 %26, ptr %27, align 4
  %28 = getelementptr inbounds nuw i8, ptr %7, i64 8
  %29 = load i32, ptr %28, align 4
  %30 = call i32 @llvm.bswap.i32(i32 %29)
  br label %37

31:                                               ; preds = %16
  store i32 %21, ptr %19, align 4
  %32 = getelementptr inbounds nuw i8, ptr %7, i64 4
  %33 = load i32, ptr %32, align 4
  %34 = getelementptr inbounds nuw i8, ptr %19, i64 4
  store i32 %33, ptr %34, align 4
  %35 = getelementptr inbounds nuw i8, ptr %7, i64 8
  %36 = load i32, ptr %35, align 4
  br label %37

37:                                               ; preds = %31, %22
  %.sink = phi i32 [ %36, %31 ], [ %30, %22 ]
  %38 = getelementptr inbounds nuw i8, ptr %19, i64 8
  store i32 %.sink, ptr %38, align 4
  %39 = load i32, ptr %8, align 4
  %40 = add i32 %39, -24
  %41 = call i32 @pcapng_process_options(ptr noundef %0, ptr noundef nonnull %3, ptr noundef nonnull %2, i32 noundef %40, ptr noundef nonnull @pcapng_process_interface_statistics_block_option, i32 noundef 0, ptr noundef %4, ptr noundef %5)
  %.not25 = icmp eq i32 %41, 0
  br i1 %.not25, label %44, label %42

42:                                               ; preds = %37
  %43 = getelementptr inbounds nuw i8, ptr %3, i64 4
  store i32 1, ptr %43, align 4
  br label %44

44:                                               ; preds = %37, %14, %42, %11
  %.0 = phi i32 [ 0, %11 ], [ 1, %42 ], [ 0, %14 ], [ 0, %37 ]
  ret i32 %.0
}